target datalayout = "e-m:e-p270:32:32-p271:32:32-p272:64:64-i64:64-i128:128-f80:128-n8:16:32:64-S128"
target triple = "x86_64-pc-linux-gnu"

%struct.ParamListInfoData = type { ptr, ptr, ptr, ptr, ptr, ptr, ptr, i32, [0 x %struct.ParamExternData] }
%struct.ParamExternData = type { i64, i8, i16, i32 }

; Function Attrs: nounwind uwtable
define dso_local i64 @EstimateParamListSpace(ptr noundef %0) #0 {
  %2 = alloca i64, align 8
  %3 = alloca ptr, align 8
  %4 = alloca i32, align 4
  %5 = alloca i64, align 8
  %6 = alloca i32, align 4
  %7 = alloca ptr, align 8
  %8 = alloca %struct.ParamExternData, align 8
  %9 = alloca i32, align 4
  %10 = alloca i16, align 2
  %11 = alloca i8, align 1
  store ptr %0, ptr %3, align 8
  call void @llvm.lifetime.start.p0(i64 4, ptr %4) #5
  call void @llvm.lifetime.start.p0(i64 8, ptr %5) #5
  store i64 4, ptr %5, align 8
  %12 = load ptr, ptr %3, align 8
  %13 = icmp eq ptr %12, null
  br i1 %13, label %19, label %14

14:                                               ; preds = %1
  %15 = load ptr, ptr %3, align 8
  %16 = getelementptr inbounds nuw %struct.ParamListInfoData, ptr %15, i32 0, i32 7
  %17 = load i32, ptr %16, align 8
  %18 = icmp sle i32 %17, 0
  br i1 %18, label %19, label %21

19:                                               ; preds = %14, %1
  %20 = load i64, ptr %5, align 8
  store i64 %20, ptr %2, align 8
  store i32 1, ptr %6, align 4
  br label %80

21:                                               ; preds = %14
  store i32 0, ptr %4, align 4
  br label %22

22:                                               ; preds = %75, %21
  %23 = load i32, ptr %4, align 4
  %24 = load ptr, ptr %3, align 8
  %25 = getelementptr inbounds nuw %struct.ParamListInfoData, ptr %24, i32 0, i32 7
  %26 = load i32, ptr %25, align 8
  %27 = icmp slt i32 %23, %26
  br i1 %27, label %28, label %78

28:                                               ; preds = %22
  call void @llvm.lifetime.start.p0(i64 8, ptr %7) #5
  call void @llvm.lifetime.start.p0(i64 16, ptr %8) #5
  call void @llvm.lifetime.start.p0(i64 4, ptr %9) #5
  call void @llvm.lifetime.start.p0(i64 2, ptr %10) #5
  call void @llvm.lifetime.start.p0(i64 1, ptr %11) #5
  %29 = load ptr, ptr %3, align 8
  %30 = getelementptr inbounds nuw %struct.ParamListInfoData, ptr %29, i32 0, i32 0
  %31 = load ptr, ptr %30, align 8
  %32 = icmp ne ptr %31, null
  br i1 %32, label %33, label %41

33:                                               ; preds = %28
  %34 = load ptr, ptr %3, align 8
  %35 = getelementptr inbounds nuw %struct.ParamListInfoData, ptr %34, i32 0, i32 0
  %36 = load ptr, ptr %35, align 8
  %37 = load ptr, ptr %3, align 8
  %38 = load i32, ptr %4, align 4
  %39 = add i32 %38, 1
  %40 = call ptr %36(ptr noundef %37, i32 noundef %39, i1 noundef zeroext false, ptr noundef %8)
  store ptr %40, ptr %7, align 8
  br label %47

41:                                               ; preds = %28
  %42 = load ptr, ptr %3, align 8
  %43 = getelementptr inbounds nuw %struct.ParamListInfoData, ptr %42, i32 0, i32 8
  %44 = load i32, ptr %4, align 4
  %45 = sext i32 %44 to i64
  %46 = getelementptr inbounds [0 x %struct.ParamExternData], ptr %43, i64 0, i64 %45
  store ptr %46, ptr %7, align 8
  br label %47

47:                                               ; preds = %41, %33
  %48 = load ptr, ptr %7, align 8
  %49 = getelementptr inbounds nuw %struct.ParamExternData, ptr %48, i32 0, i32 3
  %50 = load i32, ptr %49, align 4
  store i32 %50, ptr %9, align 4
  %51 = load i64, ptr %5, align 8
  %52 = call i64 @add_size(i64 noundef %51, i64 noundef 4)
  store i64 %52, ptr %5, align 8
  %53 = load i64, ptr %5, align 8
  %54 = call i64 @add_size(i64 noundef %53, i64 noundef 2)
  store i64 %54, ptr %5, align 8
  %55 = load i32, ptr %9, align 4
  %56 = icmp ne i32 %55, 0
  br i1 %56, label %57, label %59

57:                                               ; preds = %47
  %58 = load i32, ptr %9, align 4
  call void @get_typlenbyval(i32 noundef %58, ptr noundef %10, ptr noundef %11)
  br label %60

59:                                               ; preds = %47
  store i16 8, ptr %10, align 2
  store i8 1, ptr %11, align 1
  br label %60

60:                                               ; preds = %59, %57
  %61 = load i64, ptr %5, align 8
  %62 = load ptr, ptr %7, align 8
  %63 = getelementptr inbounds nuw %struct.ParamExternData, ptr %62, i32 0, i32 0
  %64 = load i64, ptr %63, align 8
  %65 = load ptr, ptr %7, align 8
  %66 = getelementptr inbounds nuw %struct.ParamExternData, ptr %65, i32 0, i32 1
  %67 = load i8, ptr %66, align 8, !range !4, !noundef !5
  %68 = trunc i8 %67 to i1
  %69 = load i8, ptr %11, align 1, !range !4, !noundef !5
  %70 = trunc i8 %69 to i1
  %71 = load i16, ptr %10, align 2
  %72 = sext i16 %71 to i32
  %73 = call i64 @datumEstimateSpace(i64 noundef %64, i1 noundef zeroext %68, i1 noundef zeroext %70, i32 noundef %72)
  %74 = call i64 @add_size(i64 noundef %61, i64 noundef %73)
  store i64 %74, ptr %5, align 8
  call void @llvm.lifetime.end.p0(i64 1, ptr %11) #5
  call void @llvm.lifetime.end.p0(i64 2, ptr %10) #5
  call void @llvm.lifetime.end.p0(i64 4, ptr %9) #5
  call void @llvm.lifetime.end.p0(i64 16, ptr %8) #5
  call void @llvm.lifetime.end.p0(i64 8, ptr %7) #5
  br label %75

75:                                               ; preds = %60
  %76 = load i32, ptr %4, align 4
  %77 = add i32 %76, 1
  store i32 %77, ptr %4, align 4
  br label %22, !llvm.loop !8

78:                                               ; preds = %22
  %79 = load i64, ptr %5, align 8
  store i64 %79, ptr %2, align 8
  store i32 1, ptr %6, align 4
  br label %80

80:                                               ; preds = %78, %19
  call void @llvm.lifetime.end.p0(i64 8, ptr %5) #5
  call void @llvm.lifetime.end.p0(i64 4, ptr %4) #5
  %81 = load i64, ptr %2, align 8
  ret i64 %81
}