; Function Attrs: nounwind uwtable
define dso_local i64 @EstimateParamListSpace(ptr noundef %0) local_unnamed_addr #0 {
  %2 = alloca %struct.ParamExternData, align 8
  %3 = alloca i16, align 2
  %4 = alloca i8, align 1
  %5 = icmp eq ptr %0, null
  br i1 %5, label %.loopexit, label %6

6:                                                ; preds = %1
  %7 = getelementptr inbounds nuw i8, ptr %0, i64 56
  %8 = load i32, ptr %7, align 8
  %9 = icmp slt i32 %8, 1
  br i1 %9, label %.loopexit, label %.lr.ph

.lr.ph:                                           ; preds = %6
  %10 = getelementptr inbounds nuw i8, ptr %0, i64 64
  br label %11

11:                                               ; preds = %.lr.ph, %28
  %indvars.iv = phi i64 [ 0, %.lr.ph ], [ %indvars.iv.next, %28 ]
  %.02229 = phi i64 [ 4, %.lr.ph ], [ %36, %28 ]
  call void @llvm.lifetime.start.p0(i64 16, ptr nonnull %2) #7
  call void @llvm.lifetime.start.p0(i64 2, ptr nonnull %3) #7
  call void @llvm.lifetime.start.p0(i64 1, ptr nonnull %4) #7
  %12 = load ptr, ptr %0, align 8
  %.not = icmp eq ptr %12, null
  br i1 %.not, label %17, label %13

13:                                               ; preds = %11
  %14 = trunc i64 %indvars.iv to i32
  %15 = add i32 %14, 1
  %16 = call ptr %12(ptr noundef nonnull %0, i32 noundef %15, i1 noundef zeroext false, ptr noundef nonnull %2) #7
  br label %19

17:                                               ; preds = %11
  %18 = getelementptr inbounds nuw [0 x %struct.ParamExternData], ptr %10, i64 0, i64 %indvars.iv
  br label %19

19:                                               ; preds = %17, %13
  %.021 = phi ptr [ %16, %13 ], [ %18, %17 ]
  %20 = getelementptr inbounds nuw i8, ptr %.021, i64 12
  %21 = load i32, ptr %20, align 4
  %22 = call i64 @add_size(i64 noundef %.02229, i64 noundef 4) #7
  %23 = call i64 @add_size(i64 noundef %22, i64 noundef 2) #7
  %.not27 = icmp eq i32 %21, 0
  br i1 %.not27, label %27, label %24

24:                                               ; preds = %19
  call void @get_typlenbyval(i32 noundef %21, ptr noundef nonnull %3, ptr noundef nonnull %4) #7
  %.pre = load i8, ptr %4, align 1, !range !4
  %.pre31 = load i16, ptr %3, align 2
  %25 = trunc nuw i8 %.pre to i1
  %26 = sext i16 %.pre31 to i32
  br label %28

27:                                               ; preds = %19
  store i16 8, ptr %3, align 2
  store i8 1, ptr %4, align 1
  br label %28

28:                                               ; preds = %27, %24
  %29 = phi i32 [ 8, %27 ], [ %26, %24 ]
  %30 = phi i1 [ true, %27 ], [ %25, %24 ]
  %31 = load i64, ptr %.021, align 8
  %32 = getelementptr inbounds nuw i8, ptr %.021, i64 8
  %33 = load i8, ptr %32, align 8, !range !4, !noundef !5
  %34 = trunc nuw i8 %33 to i1
  %35 = call i64 @datumEstimateSpace(i64 noundef %31, i1 noundef zeroext %34, i1 noundef zeroext %30, i32 noundef %29) #7
  %36 = call i64 @add_size(i64 noundef %23, i64 noundef %35) #7
  call void @llvm.lifetime.end.p0(i64 1, ptr nonnull %4) #7
  call void @llvm.lifetime.end.p0(i64 2, ptr nonnull %3) #7
  call void @llvm.lifetime.end.p0(i64 16, ptr nonnull %2) #7
  %indvars.iv.next = add nuw nsw i64 %indvars.iv, 1
  %37 = load i32, ptr %7, align 8
  %38 = sext i32 %37 to i64
  %39 = icmp slt i64 %indvars.iv.next, %38
  br i1 %39, label %11, label %.loopexit, !llvm.loop !8

.loopexit:                                        ; preds = %28, %1, %6
  %.0 = phi i64 [ 4, %6 ], [ 4, %1 ], [ %36, %28 ]
  ret i64 %.0
}